target datalayout = "e-m:e-p270:32:32-p271:32:32-p272:64:64-i64:64-i128:128-f80:128-n8:16:32:64-S128"
target triple = "x86_64-pc-linux-gnu"

%struct.AVFormatContext = type { ptr, ptr, ptr, ptr, ptr, i32, i32, ptr, i32, ptr, i32, ptr, ptr, i64, i64, i64, i32, i32, i32, i64, i64, ptr, i32, i32, ptr, i32, i32, i32, i32, ptr, i64, i32, i32, %struct.AVIOInterruptCB, i32, i32, i32, i32, i64, i32, i32, i32, i32, i32, i32, i32, i32, i32, i32, i32, i32, i64, i32, i32, i32, i32, i32, ptr, ptr, ptr, ptr, i32, ptr, ptr, ptr, ptr, i32, ptr, ptr, i64, ptr, ptr, ptr, i64 }
%struct.AVIOInterruptCB = type { ptr, ptr }
%struct.DASHContext = type { ptr, ptr, ptr, i32, i32, i32, i64, i64, i32, i32, i32, i32, ptr, i32, i64, i64, [100 x i8], i64, i64, [1024 x i8], ptr, ptr, ptr, ptr, ptr, ptr, ptr, i32, ptr, i32, i32, ptr, ptr, ptr, i32, i64, i32, ptr, i32, i32, i32, i32, i32, i32, i32, i32, i32, i32, i64, i64, i32, i64, i32, %struct.AVRational, %struct.AVRational, i64 }
%struct.AVRational = type { i32, i32 }

@.str.136 = private unnamed_addr constant [35 x i8] c"Unable to open %s for writing: %s\0A\00", align 1

; Function Attrs: inlinehint nounwind uwtable
define internal ptr @av_make_error_string(ptr noundef %0, i64 noundef %1, i32 noundef %2) #11 {
  %4 = alloca ptr, align 8
  %5 = alloca i64, align 8
  %6 = alloca i32, align 4
  store ptr %0, ptr %4, align 8, !tbaa !116
  store i64 %1, ptr %5, align 8, !tbaa !67
  store i32 %2, ptr %6, align 4, !tbaa !28
  %7 = load i32, ptr %6, align 4, !tbaa !28
  %8 = load ptr, ptr %4, align 8, !tbaa !116
  %9 = load i64, ptr %5, align 8, !tbaa !67
  %10 = call i32 @av_strerror(i32 noundef %7, ptr noundef %8, i64 noundef %9)
  %11 = load ptr, ptr %4, align 8, !tbaa !116
  ret ptr %11
}

; Function Attrs: nounwind uwtable
define internal i32 @handle_io_open_error(ptr noundef %0, i32 noundef %1, ptr noundef %2) #0 {
  %4 = alloca ptr, align 8
  %5 = alloca i32, align 4
  %6 = alloca ptr, align 8
  %7 = alloca ptr, align 8
  %8 = alloca [64 x i8], align 1
  store ptr %0, ptr %4, align 8, !tbaa !4
  store i32 %1, ptr %5, align 4, !tbaa !28
  store ptr %2, ptr %6, align 8, !tbaa !116
  call void @llvm.lifetime.start.p0(i64 8, ptr %7) #13
  %9 = load ptr, ptr %4, align 8, !tbaa !4
  %10 = getelementptr inbounds nuw %struct.AVFormatContext, ptr %9, i32 0, i32 3
  %11 = load ptr, ptr %10, align 8, !tbaa !9
  store ptr %11, ptr %7, align 8, !tbaa !26
  %12 = load ptr, ptr %4, align 8, !tbaa !4
  %13 = load ptr, ptr %7, align 8, !tbaa !26
  %14 = getelementptr inbounds nuw %struct.DASHContext, ptr %13, i32 0, i32 40
  %15 = load i32, ptr %14, align 8, !tbaa !239
  %16 = icmp ne i32 %15, 0
  %17 = select i1 %16, i32 24, i32 16
  %18 = load ptr, ptr %6, align 8, !tbaa !116
  call void @llvm.memset.p0.i64(ptr align 1 %8, i8 0, i64 64, i1 false)
  %19 = getelementptr inbounds [64 x i8], ptr %8, i64 0, i64 0
  %20 = load i32, ptr %5, align 4, !tbaa !28
  %21 = call ptr @av_make_error_string(ptr noundef %19, i64 noundef 64, i32 noundef %20)
  call void (ptr, i32, ptr, ...) @av_log(ptr noundef %12, i32 noundef %17, ptr noundef @.str.136, ptr noundef %18, ptr noundef %21)
  %22 = load ptr, ptr %7, align 8, !tbaa !26
  %23 = getelementptr inbounds nuw %struct.DASHContext, ptr %22, i32 0, i32 40
  %24 = load i32, ptr %23, align 8, !tbaa !239
  %25 = icmp ne i32 %24, 0
  br i1 %25, label %26, label %27

26:                                               ; preds = %3
  br label %29

27:                                               ; preds = %3
  %28 = load i32, ptr %5, align 4, !tbaa !28
  br label %29

29:                                               ; preds = %27, %26
  %30 = phi i32 [ 0, %26 ], [ %28, %27 ]
  call void @llvm.lifetime.end.p0(i64 8, ptr %7) #13
  ret i32 %30
}