; Function Attrs: nounwind uwtable
define internal fastcc range(i32 -2147483648, 1) i32 @handle_io_open_error(ptr noundef %0, i32 noundef range(i32 -2147483648, 0) %1, ptr noundef %2) unnamed_addr #0 {
  %4 = alloca [64 x i8], align 1
  %5 = getelementptr inbounds nuw i8, ptr %0, i64 24
  %6 = load ptr, ptr %5, align 8, !tbaa !24
  %7 = getelementptr inbounds nuw i8, ptr %6, i64 1392
  %8 = load i32, ptr %7, align 8, !tbaa !235
  %.not = icmp eq i32 %8, 0
  %9 = select i1 %.not, i32 16, i32 24
  call void @llvm.memset.p0.i64(ptr noundef nonnull align 1 dereferenceable(64) %4, i8 0, i64 64, i1 false)
  %10 = call i32 @av_strerror(i32 noundef range(i32 -2147483648, 0) %1, ptr noundef nonnull %4, i64 noundef 64) #15
  call void (ptr, i32, ptr, ...) @av_log(ptr noundef %0, i32 noundef %9, ptr noundef nonnull @.str.136, ptr noundef %2, ptr noundef nonnull %4) #15
  %11 = load i32, ptr %7, align 8, !tbaa !235
  %.not6 = icmp eq i32 %11, 0
  %12 = select i1 %.not6, i32 %1, i32 0
  ret i32 %12
}